; Function Attrs: nounwind uwtable
define void @Pdr_ManCollectCone(ptr noundef %0, ptr noundef readonly captures(none) %1, ptr noundef initializes((4, 8)) %2, ptr noundef initializes((4, 8)) %3) local_unnamed_addr #0 {
  %5 = getelementptr inbounds nuw i8, ptr %2, i64 4
  store i32 0, ptr %5, align 4
  %6 = getelementptr inbounds nuw i8, ptr %3, i64 4
  store i32 0, ptr %6, align 4
  tail call void @Aig_ManIncrementTravId(ptr noundef %0) #13
  %7 = getelementptr i8, ptr %0, i64 48
  %.val14 = load ptr, ptr %7, align 8
  %8 = getelementptr i8, ptr %0, i64 312
  %.val = load i32, ptr %8, align 8
  %9 = getelementptr inbounds nuw i8, ptr %.val14, i64 32
  store i32 %.val, ptr %9, align 8
  %10 = getelementptr i8, ptr %1, i64 4
  %.val1518 = load i32, ptr %10, align 4
  %11 = icmp sgt i32 %.val1518, 0
  br i1 %11, label %.lr.ph, label %.critedge

.lr.ph:                                           ; preds = %4
  %12 = getelementptr i8, ptr %0, i64 32
  %13 = getelementptr i8, ptr %1, i64 8
  br label %14

14:                                               ; preds = %.lr.ph, %Aig_ManObj.exit
  %indvars.iv = phi i64 [ 0, %.lr.ph ], [ %indvars.iv.next, %Aig_ManObj.exit ]
  %.val17 = load ptr, ptr %12, align 8
  %.not.i = icmp eq ptr %.val17, null
  br i1 %.not.i, label %Aig_ManObj.exit, label %15

15:                                               ; preds = %14
  %.val16 = load ptr, ptr %13, align 8
  %16 = getelementptr inbounds nuw i32, ptr %.val16, i64 %indvars.iv
  %17 = load i32, ptr %16, align 4
  %18 = getelementptr i8, ptr %.val17, i64 8
  %.val.i = load ptr, ptr %18, align 8
  %19 = sext i32 %17 to i64
  %20 = getelementptr inbounds ptr, ptr %.val.i, i64 %19
  %21 = load ptr, ptr %20, align 8
  br label %Aig_ManObj.exit

Aig_ManObj.exit:                                  ; preds = %14, %15
  %22 = phi ptr [ %21, %15 ], [ null, %14 ]
  tail call void @Pdr_ManCollectCone_rec(ptr noundef nonnull %0, ptr noundef %22, ptr noundef %2, ptr noundef %3)
  %indvars.iv.next = add nuw nsw i64 %indvars.iv, 1
  %.val15 = load i32, ptr %10, align 4
  %23 = sext i32 %.val15 to i64
  %24 = icmp slt i64 %indvars.iv.next, %23
  br i1 %24, label %14, label %.critedge, !llvm.loop !4

.critedge:                                        ; preds = %Aig_ManObj.exit, %4
  ret void
}